target datalayout = "e-m:e-p270:32:32-p271:32:32-p272:64:64-i64:64-i128:128-f80:128-n8:16:32:64-S128"
target triple = "x86_64-pc-linux-gnu"

%"class.google::protobuf::EnumValueDescriptor" = type { %"class.google::protobuf::internal::SymbolBaseN", %"class.google::protobuf::internal::SymbolBaseN.0", i32, ptr, ptr, ptr }
%"class.google::protobuf::internal::SymbolBaseN" = type { %"class.google::protobuf::internal::SymbolBase" }
%"class.google::protobuf::internal::SymbolBase" = type { i8 }
%"class.google::protobuf::internal::SymbolBaseN.0" = type { %"class.google::protobuf::internal::SymbolBase" }
%"class.google::protobuf::Reflection" = type <{ ptr, %"struct.google::protobuf::internal::ReflectionSchema", ptr, ptr, i32, [4 x i8] }>
%"struct.google::protobuf::internal::ReflectionSchema" = type { ptr, ptr, ptr, i32, i32, i32, i32, i32, i32, ptr, i32 }

@.str.64 = private unnamed_addr constant [8 x i8] c"SetEnum\00", align 1

; Function Attrs: inlinehint mustprogress nounwind uwtable
define linkonce_odr hidden noundef i32 @_ZNK6google8protobuf19EnumValueDescriptor6numberEv(ptr noundef nonnull align 8 dereferenceable(32) %0) #6 comdat align 2 {
  %2 = alloca ptr, align 8
  store ptr %0, ptr %2, align 8, !tbaa !12
  %3 = load ptr, ptr %2, align 8
  %4 = getelementptr inbounds nuw %"class.google::protobuf::EnumValueDescriptor", ptr %3, i32 0, i32 2
  %5 = load i32, ptr %4, align 4, !tbaa !16
  ret i32 %5
}

; Function Attrs: inlinehint mustprogress nounwind uwtable
define linkonce_odr hidden noundef ptr @_ZNK6google8protobuf19EnumValueDescriptor4typeEv(ptr noundef nonnull align 8 dereferenceable(32) %0) #6 comdat align 2 {
  %2 = alloca ptr, align 8
  store ptr %0, ptr %2, align 8, !tbaa !12
  %3 = load ptr, ptr %2, align 8
  %4 = getelementptr inbounds nuw %"class.google::protobuf::EnumValueDescriptor", ptr %3, i32 0, i32 4
  %5 = load ptr, ptr %4, align 8, !tbaa !247
  ret ptr %5
}

; Function Attrs: mustprogress uwtable
define hidden void @_ZNK6google8protobuf10Reflection7SetEnumEPNS0_7MessageEPKNS0_15FieldDescriptorEPKNS0_19EnumValueDescriptorE(ptr noundef nonnull align 8 dereferenceable(96) %0, ptr noundef %1, ptr noundef %2, ptr noundef %3) #4 align 2 {
  %5 = alloca ptr, align 8
  %6 = alloca ptr, align 8
  %7 = alloca ptr, align 8
  %8 = alloca ptr, align 8
  store ptr %0, ptr %5, align 8, !tbaa !23
  store ptr %1, ptr %6, align 8, !tbaa !38
  store ptr %2, ptr %7, align 8, !tbaa !57
  store ptr %3, ptr %8, align 8, !tbaa !12
  %9 = load ptr, ptr %5, align 8
  %10 = load ptr, ptr %8, align 8, !tbaa !12
  %11 = call noundef ptr @_ZNK6google8protobuf19EnumValueDescriptor4typeEv(ptr noundef nonnull align 8 dereferenceable(32) %10)
  %12 = load ptr, ptr %7, align 8, !tbaa !57
  %13 = call noundef ptr @_ZNK6google8protobuf15FieldDescriptor9enum_typeEv(ptr noundef nonnull align 8 dereferenceable(72) %12)
  %14 = icmp ne ptr %11, %13
  br i1 %14, label %15, label %20

15:                                               ; preds = %4
  %16 = getelementptr inbounds nuw %"class.google::protobuf::Reflection", ptr %9, i32 0, i32 0
  %17 = load ptr, ptr %16, align 8, !tbaa !33
  %18 = load ptr, ptr %7, align 8, !tbaa !57
  %19 = load ptr, ptr %8, align 8, !tbaa !12
  call void @_ZN6google8protobuf12_GLOBAL__N_134ReportReflectionUsageEnumTypeErrorEPKNS0_10DescriptorEPKNS0_15FieldDescriptorEPKcPKNS0_19EnumValueDescriptorE(ptr noundef %17, ptr noundef %18, ptr noundef @.str.64, ptr noundef %19)
  br label %20

20:                                               ; preds = %15, %4
  %21 = load ptr, ptr %6, align 8, !tbaa !38
  %22 = load ptr, ptr %7, align 8, !tbaa !57
  %23 = load ptr, ptr %8, align 8, !tbaa !12
  %24 = call noundef i32 @_ZNK6google8protobuf19EnumValueDescriptor6numberEv(ptr noundef nonnull align 8 dereferenceable(32) %23)
  call void @_ZNK6google8protobuf10Reflection20SetEnumValueInternalEPNS0_7MessageEPKNS0_15FieldDescriptorEi(ptr noundef nonnull align 8 dereferenceable(96) %9, ptr noundef %21, ptr noundef %22, i32 noundef %24)
  ret void
}